target datalayout = "e-m:e-p270:32:32-p271:32:32-p272:64:64-i64:64-i128:128-f80:128-n8:16:32:64-S128"
target triple = "x86_64-pc-linux-gnu"

%struct.wtap = type { ptr, ptr, i8, i32, i32, ptr, ptr, ptr, i32, ptr, ptr, ptr, ptr, ptr, ptr, ptr, ptr, ptr, ptr, i32, i32, ptr, ptr, ptr, ptr }
%struct.stanag4607_t = type { i64 }

@stanag4607_file_type_subtype = internal global i32 -1, align 4

; Function Attrs: nounwind null_pointer_is_valid sspstrong uwtable
define internal zeroext i1 @is_valid_id(i16 noundef zeroext %0) #3 {
  %2 = alloca i1, align 1
  %3 = alloca i16, align 2
  store i16 %0, ptr %3, align 2
  %4 = load i16, ptr %3, align 2
  %5 = zext i16 %4 to i32
  %6 = icmp ne i32 %5, 12849
  br i1 %6, label %7, label %12

7:                                                ; preds = %1
  %8 = load i16, ptr %3, align 2
  %9 = zext i16 %8 to i32
  %10 = icmp ne i32 %9, 13104
  br i1 %10, label %11, label %12

11:                                               ; preds = %7
  store i1 false, ptr %2, align 1
  br label %13

12:                                               ; preds = %7, %1
  store i1 true, ptr %2, align 1
  br label %13

13:                                               ; preds = %12, %11
  %14 = load i1, ptr %2, align 1
  ret i1 %14
}

; Function Attrs: null_pointer_is_valid sspstrong uwtable
define hidden i32 @stanag4607_open(ptr noundef %0, ptr noundef %1, ptr noundef %2) #0 {
  %4 = alloca i32, align 4
  %5 = alloca ptr, align 8
  %6 = alloca ptr, align 8
  %7 = alloca ptr, align 8
  %8 = alloca i16, align 2
  %9 = alloca ptr, align 8
  %10 = alloca i32, align 4
  %11 = alloca i64, align 8
  %12 = alloca i64, align 8
  %13 = alloca ptr, align 8
  %14 = alloca ptr, align 8
  store ptr %0, ptr %5, align 8
  store ptr %1, ptr %6, align 8
  store ptr %2, ptr %7, align 8
  call void @llvm.lifetime.start.p0(i64 2, ptr %8) #9
  call void @llvm.lifetime.start.p0(i64 8, ptr %9) #9
  %15 = load ptr, ptr %5, align 8
  %16 = getelementptr inbounds nuw %struct.wtap, ptr %15, i32 0, i32 0
  %17 = load ptr, ptr %16, align 8
  %18 = load ptr, ptr %6, align 8
  %19 = load ptr, ptr %7, align 8
  %20 = call zeroext i1 @wtap_read_bytes(ptr noundef %17, ptr noundef %8, i32 noundef 2, ptr noundef %18, ptr noundef %19)
  br i1 %20, label %26, label %21

21:                                               ; preds = %3
  %22 = load ptr, ptr %6, align 8
  %23 = load i32, ptr %22, align 4
  %24 = icmp ne i32 %23, -12
  %25 = select i1 %24, i32 -1, i32 0
  store i32 %25, ptr %4, align 4
  store i32 1, ptr %10, align 4
  br label %98

26:                                               ; preds = %3
  %27 = load i16, ptr %8, align 2
  %28 = zext i16 %27 to i32
  %29 = ashr i32 %28, 8
  %30 = trunc i32 %29 to i16
  %31 = zext i16 %30 to i32
  %32 = load i16, ptr %8, align 2
  %33 = zext i16 %32 to i32
  %34 = shl i32 %33, 8
  %35 = trunc i32 %34 to i16
  %36 = zext i16 %35 to i32
  %37 = or i32 %31, %36
  %38 = trunc i32 %37 to i16
  %39 = call zeroext i1 @is_valid_id(i16 noundef zeroext %38)
  br i1 %39, label %41, label %40

40:                                               ; preds = %26
  store i32 0, ptr %4, align 4
  store i32 1, ptr %10, align 4
  br label %98

41:                                               ; preds = %26
  %42 = load ptr, ptr %5, align 8
  %43 = getelementptr inbounds nuw %struct.wtap, ptr %42, i32 0, i32 0
  %44 = load ptr, ptr %43, align 8
  %45 = load ptr, ptr %6, align 8
  %46 = call i64 @file_seek(ptr noundef %44, i64 noundef 0, i32 noundef 0, ptr noundef %45)
  %47 = icmp eq i64 %46, -1
  br i1 %47, label %48, label %49

48:                                               ; preds = %41
  store i32 -1, ptr %4, align 4
  store i32 1, ptr %10, align 4
  br label %98

49:                                               ; preds = %41
  %50 = load i32, ptr @stanag4607_file_type_subtype, align 4
  %51 = load ptr, ptr %5, align 8
  %52 = getelementptr inbounds nuw %struct.wtap, ptr %51, i32 0, i32 3
  store i32 %50, ptr %52, align 4
  %53 = load ptr, ptr %5, align 8
  %54 = getelementptr inbounds nuw %struct.wtap, ptr %53, i32 0, i32 19
  store i32 156, ptr %54, align 8
  %55 = load ptr, ptr %5, align 8
  %56 = getelementptr inbounds nuw %struct.wtap, ptr %55, i32 0, i32 4
  store i32 0, ptr %56, align 8
  call void @llvm.lifetime.start.p0(i64 8, ptr %11) #9
  store i64 1, ptr %11, align 8
  call void @llvm.lifetime.start.p0(i64 8, ptr %12) #9
  store i64 8, ptr %12, align 8
  call void @llvm.lifetime.start.p0(i64 8, ptr %13) #9
  %57 = load i64, ptr %12, align 8
  %58 = icmp eq i64 %57, 1
  br i1 %58, label %59, label %62

59:                                               ; preds = %49
  %60 = load i64, ptr %11, align 8
  %61 = call noalias ptr @g_malloc(i64 noundef %60) #10
  store ptr %61, ptr %13, align 8
  br label %83

62:                                               ; preds = %49
  %63 = load i64, ptr %11, align 8
  %64 = call i1 @llvm.is.constant.i64(i64 %63)
  br i1 %64, label %65, label %78

65:                                               ; preds = %62
  %66 = load i64, ptr %12, align 8
  %67 = icmp eq i64 %66, 0
  br i1 %67, label %73, label %68

68:                                               ; preds = %65
  %69 = load i64, ptr %11, align 8
  %70 = load i64, ptr %12, align 8
  %71 = udiv i64 -1, %70
  %72 = icmp ule i64 %69, %71
  br i1 %72, label %73, label %78

73:                                               ; preds = %68, %65
  %74 = load i64, ptr %11, align 8
  %75 = load i64, ptr %12, align 8
  %76 = mul i64 %74, %75
  %77 = call noalias ptr @g_malloc(i64 noundef %76) #10
  store ptr %77, ptr %13, align 8
  br label %82

78:                                               ; preds = %68, %62
  %79 = load i64, ptr %11, align 8
  %80 = load i64, ptr %12, align 8
  %81 = call noalias ptr @g_malloc_n(i64 noundef %79, i64 noundef %80) #11
  store ptr %81, ptr %13, align 8
  br label %82

82:                                               ; preds = %78, %73
  br label %83

83:                                               ; preds = %82, %59
  %84 = load ptr, ptr %13, align 8
  store ptr %84, ptr %14, align 8
  call void @llvm.lifetime.end.p0(i64 8, ptr %13) #9
  call void @llvm.lifetime.end.p0(i64 8, ptr %12) #9
  call void @llvm.lifetime.end.p0(i64 8, ptr %11) #9
  %85 = load ptr, ptr %14, align 8
  store ptr %85, ptr %9, align 8
  %86 = load ptr, ptr %9, align 8
  %87 = load ptr, ptr %5, align 8
  %88 = getelementptr inbounds nuw %struct.wtap, ptr %87, i32 0, i32 13
  store ptr %86, ptr %88, align 8
  %89 = load ptr, ptr %9, align 8
  %90 = getelementptr inbounds nuw %struct.stanag4607_t, ptr %89, i32 0, i32 0
  store i64 0, ptr %90, align 8
  %91 = load ptr, ptr %5, align 8
  %92 = getelementptr inbounds nuw %struct.wtap, ptr %91, i32 0, i32 15
  store ptr @stanag4607_read, ptr %92, align 8
  %93 = load ptr, ptr %5, align 8
  %94 = getelementptr inbounds nuw %struct.wtap, ptr %93, i32 0, i32 16
  store ptr @stanag4607_seek_read, ptr %94, align 8
  %95 = load ptr, ptr %5, align 8
  %96 = getelementptr inbounds nuw %struct.wtap, ptr %95, i32 0, i32 20
  store i32 3, ptr %96, align 4
  %97 = load ptr, ptr %5, align 8
  call void @wtap_add_generated_idb(ptr noundef %97)
  store i32 1, ptr %4, align 4
  store i32 1, ptr %10, align 4
  br label %98

98:                                               ; preds = %83, %48, %40, %21
  call void @llvm.lifetime.end.p0(i64 8, ptr %9) #9
  call void @llvm.lifetime.end.p0(i64 2, ptr %8) #9
  %99 = load i32, ptr %4, align 4
  ret i32 %99
}