; Function Attrs: null_pointer_is_valid sspstrong uwtable
define hidden range(i32 -1, 2) i32 @stanag4607_open(ptr noundef %0, ptr noundef %1, ptr noundef %2) local_unnamed_addr #0 {
  %4 = alloca i16, align 2
  call void @llvm.lifetime.start.p0(i64 2, ptr nonnull %4) #6
  %5 = load ptr, ptr %0, align 8
  %6 = call zeroext i1 @wtap_read_bytes(ptr noundef %5, ptr noundef nonnull %4, i32 noundef 2, ptr noundef %1, ptr noundef %2)
  br i1 %6, label %10, label %7

7:                                                ; preds = %3
  %8 = load i32, ptr %1, align 4
  %.not = icmp ne i32 %8, -12
  %9 = sext i1 %.not to i32
  br label %26

10:                                               ; preds = %3
  %11 = load i16, ptr %4, align 2
  %rev = call i16 @llvm.bswap.i16(i16 %11)
  switch i16 %rev, label %26 [
    i16 13104, label %12
    i16 12849, label %12
  ]

12:                                               ; preds = %10, %10
  %13 = load ptr, ptr %0, align 8
  %14 = call i64 @file_seek(ptr noundef %13, i64 noundef 0, i32 noundef 0, ptr noundef %1)
  %15 = icmp eq i64 %14, -1
  br i1 %15, label %26, label %16

16:                                               ; preds = %12
  %17 = load i32, ptr @stanag4607_file_type_subtype, align 4
  %18 = getelementptr inbounds nuw i8, ptr %0, i64 20
  store i32 %17, ptr %18, align 4
  %19 = getelementptr inbounds nuw i8, ptr %0, i64 144
  store i32 156, ptr %19, align 8
  %20 = getelementptr inbounds nuw i8, ptr %0, i64 24
  store i32 0, ptr %20, align 8
  %21 = call noalias dereferenceable_or_null(8) ptr @g_malloc(i64 noundef 8) #7
  %22 = getelementptr inbounds nuw i8, ptr %0, i64 96
  store ptr %21, ptr %22, align 8
  store i64 0, ptr %21, align 8
  %23 = getelementptr inbounds nuw i8, ptr %0, i64 112
  store ptr @stanag4607_read, ptr %23, align 8
  %24 = getelementptr inbounds nuw i8, ptr %0, i64 120
  store ptr @stanag4607_seek_read, ptr %24, align 8
  %25 = getelementptr inbounds nuw i8, ptr %0, i64 148
  store i32 3, ptr %25, align 4
  call void @wtap_add_generated_idb(ptr noundef %0)
  br label %26

26:                                               ; preds = %10, %12, %16, %7
  %.0 = phi i32 [ 1, %16 ], [ %9, %7 ], [ 0, %10 ], [ -1, %12 ]
  call void @llvm.lifetime.end.p0(i64 2, ptr nonnull %4) #6
  ret i32 %.0
}